target datalayout = "e-m:e-p270:32:32-p271:32:32-p272:64:64-i64:64-i128:128-f80:128-n8:16:32:64-S128"
target triple = "x86_64-pc-linux-gnu"

%"class.std::__shared_count" = type { ptr }
%"class.std::shared_ptr.89" = type { %"class.std::__shared_ptr.90" }
%"class.std::__shared_ptr.90" = type { ptr, %"class.std::__shared_count" }
%"class.nix::ref.92" = type { %"class.std::shared_ptr.89" }

; Function Attrs: mustprogress uwtable
define void @_ZN3nix12StoreCommand3runEv(ptr noundef nonnull align 8 dereferenceable(24) %0) unnamed_addr #5 align 2 personality ptr @__gxx_personality_v0 {
  %2 = alloca ptr, align 8
  %3 = alloca %"class.nix::ref.92", align 8
  %4 = alloca ptr, align 8
  %5 = alloca i32, align 4
  store ptr %0, ptr %2, align 8
  %6 = load ptr, ptr %2, align 8
  call void @_ZN3nix12StoreCommand8getStoreEv(ptr dead_on_unwind writable sret(%"class.nix::ref.92") align 8 %3, ptr noundef nonnull align 8 dereferenceable(24) %6)
  %7 = load ptr, ptr %6, align 8
  %8 = getelementptr inbounds ptr, ptr %7, i64 6
  %9 = load ptr, ptr %8, align 8
  invoke void %9(ptr noundef nonnull align 8 dereferenceable(24) %6, ptr noundef %3)
          to label %10 unwind label %11

10:                                               ; preds = %1
  call void @_ZN3nix3refINS_5StoreEED2Ev(ptr noundef nonnull align 8 dereferenceable(16) %3) #1
  ret void

11:                                               ; preds = %1
  %12 = landingpad { ptr, i32 }
          cleanup
  %13 = extractvalue { ptr, i32 } %12, 0
  store ptr %13, ptr %4, align 8
  %14 = extractvalue { ptr, i32 } %12, 1
  store i32 %14, ptr %5, align 4
  call void @_ZN3nix3refINS_5StoreEED2Ev(ptr noundef nonnull align 8 dereferenceable(16) %3) #1
  br label %15

15:                                               ; preds = %11
  %16 = load ptr, ptr %4, align 8
  %17 = load i32, ptr %5, align 4
  %18 = insertvalue { ptr, i32 } poison, ptr %16, 0
  %19 = insertvalue { ptr, i32 } %18, i32 %17, 1
  resume { ptr, i32 } %19
}