; Function Attrs: mustprogress uwtable
define void @_ZN3nix12StoreCommand3runEv(ptr noundef nonnull align 8 dereferenceable(24) %0) unnamed_addr #4 align 2 personality ptr @__gxx_personality_v0 {
  %2 = alloca %"class.nix::ref.92", align 8
  call void @_ZN3nix12StoreCommand8getStoreEv(ptr dead_on_unwind nonnull writable sret(%"class.nix::ref.92") align 8 %2, ptr noundef nonnull align 8 dereferenceable(24) %0)
  %3 = load ptr, ptr %0, align 8
  %4 = getelementptr inbounds i8, ptr %3, i64 48
  %5 = load ptr, ptr %4, align 8
  invoke void %5(ptr noundef nonnull align 8 dereferenceable(24) %0, ptr noundef nonnull %2)
          to label %6 unwind label %43

6:                                                ; preds = %1
  %7 = getelementptr inbounds i8, ptr %2, i64 8
  %8 = load ptr, ptr %7, align 8
  %.not.i.i.i.i = icmp eq ptr %8, null
  br i1 %.not.i.i.i.i, label %_ZN3nix3refINS_5StoreEED2Ev.exit, label %9

9:                                                ; preds = %6
  %10 = getelementptr inbounds i8, ptr %8, i64 8
  %11 = load atomic i64, ptr %10 acquire, align 8
  %12 = icmp eq i64 %11, 4294967297
  %13 = trunc i64 %11 to i32
  br i1 %12, label %14, label %19

14:                                               ; preds = %9
  store i32 0, ptr %10, align 8
  %15 = getelementptr inbounds i8, ptr %8, i64 12
  store i32 0, ptr %15, align 4
  %16 = load ptr, ptr %8, align 8
  %17 = getelementptr inbounds i8, ptr %16, i64 16
  %18 = load ptr, ptr %17, align 8
  call void %18(ptr noundef nonnull align 8 dereferenceable(16) %8) #31
  br label %_ZNSt16_Sp_counted_baseILN9__gnu_cxx12_Lock_policyE2EE24_M_release_last_use_coldEv.exit.sink.split.i.i.i.i.i

19:                                               ; preds = %9
  %20 = load i8, ptr @__libc_single_threaded, align 1
  %.not.i.i.i.i.i = icmp eq i8 %20, 0
  br i1 %.not.i.i.i.i.i, label %23, label %21

21:                                               ; preds = %19
  %22 = add nsw i32 %13, -1
  store i32 %22, ptr %10, align 4
  br label %25

23:                                               ; preds = %19
  %24 = atomicrmw volatile add ptr %10, i32 -1 acq_rel, align 4
  br label %25

25:                                               ; preds = %23, %21
  %.0.i.i.i.i.i = phi i32 [ %13, %21 ], [ %24, %23 ]
  %26 = icmp eq i32 %.0.i.i.i.i.i, 1
  br i1 %26, label %27, label %_ZN3nix3refINS_5StoreEED2Ev.exit

27:                                               ; preds = %25
  %28 = load ptr, ptr %8, align 8
  %29 = getelementptr inbounds i8, ptr %28, i64 16
  %30 = load ptr, ptr %29, align 8
  call void %30(ptr noundef nonnull align 8 dereferenceable(16) %8) #31
  %31 = getelementptr inbounds i8, ptr %8, i64 12
  %32 = load i8, ptr @__libc_single_threaded, align 1
  %.not.i.i.i.i.i.i.i = icmp eq i8 %32, 0
  br i1 %.not.i.i.i.i.i.i.i, label %36, label %33

33:                                               ; preds = %27
  %34 = load i32, ptr %31, align 4
  %35 = add nsw i32 %34, -1
  store i32 %35, ptr %31, align 4
  br label %38

36:                                               ; preds = %27
  %37 = atomicrmw volatile add ptr %31, i32 -1 acq_rel, align 4
  br label %38

38:                                               ; preds = %36, %33
  %.0.i.i.i.i.i.i.i = phi i32 [ %34, %33 ], [ %37, %36 ]
  %39 = icmp eq i32 %.0.i.i.i.i.i.i.i, 1
  br i1 %39, label %_ZNSt16_Sp_counted_baseILN9__gnu_cxx12_Lock_policyE2EE24_M_release_last_use_coldEv.exit.sink.split.i.i.i.i.i, label %_ZN3nix3refINS_5StoreEED2Ev.exit

_ZNSt16_Sp_counted_baseILN9__gnu_cxx12_Lock_policyE2EE24_M_release_last_use_coldEv.exit.sink.split.i.i.i.i.i: ; preds = %38, %14
  %40 = load ptr, ptr %8, align 8
  %41 = getelementptr inbounds i8, ptr %40, i64 24
  %42 = load ptr, ptr %41, align 8
  call void %42(ptr noundef nonnull align 8 dereferenceable(16) %8) #31
  br label %_ZN3nix3refINS_5StoreEED2Ev.exit

_ZN3nix3refINS_5StoreEED2Ev.exit:                 ; preds = %6, %25, %38, %_ZNSt16_Sp_counted_baseILN9__gnu_cxx12_Lock_policyE2EE24_M_release_last_use_coldEv.exit.sink.split.i.i.i.i.i
  ret void

43:                                               ; preds = %1
  %44 = landingpad { ptr, i32 }
          cleanup
  call void @_ZN3nix3refINS_5StoreEED2Ev(ptr noundef nonnull align 8 dereferenceable(16) %2) #31
  resume { ptr, i32 } %44
}